; ModuleID = '2/710.c'
source_filename = "2/710.c"
target datalayout = "e-m:e-p270:32:32-p271:32:32-p272:64:64-i64:64-f80:128-n8:16:32:64-S128"
target triple = "x86_64-pc-linux-gnu"

%struct.anon = type { i32, [26 x i8] }

@.str = private unnamed_addr constant [4 x i8] c"%d\0A\00", align 1
@.str.1 = private unnamed_addr constant [6 x i8] c"%d %s\00", align 1
@.str.2 = private unnamed_addr constant [4 x i8] c"%c\0A\00", align 1

; Function Attrs: noinline nounwind uwtable
define dso_local i32 @main() #0 {
  %1 = alloca i32, align 4
  %2 = alloca [999 x %struct.anon], align 16
  %3 = alloca i32, align 4
  %4 = alloca i32, align 4
  %5 = alloca i32, align 4
  %6 = alloca i32, align 4
  %7 = alloca [26 x [1000 x i32]], align 16
  %8 = alloca i32, align 4
  %9 = alloca i32, align 4
  %10 = alloca i32, align 4
  %11 = alloca i32, align 4
  store i32 0, i32* %1, align 4
  %12 = bitcast [26 x [1000 x i32]]* %7 to i8*
  call void @llvm.memset.p0i8.i64(i8* align 16 %12, i8 0, i64 104000, i1 false)
  %13 = call i32 (i8*, ...) @__isoc99_scanf(i8* getelementptr inbounds ([4 x i8], [4 x i8]* @.str, i64 0, i64 0), i32* %6)
  store i32 0, i32* %3, align 4
  br label %14

14:                                               ; preds = %77, %0
  %15 = load i32, i32* %3, align 4
  %16 = load i32, i32* %6, align 4
  %17 = icmp slt i32 %15, %16
  br i1 %17, label %18, label %80

18:                                               ; preds = %14
  %19 = load i32, i32* %3, align 4
  %20 = sext i32 %19 to i64
  %21 = getelementptr inbounds [999 x %struct.anon], [999 x %struct.anon]* %2, i64 0, i64 %20
  %22 = getelementptr inbounds %struct.anon, %struct.anon* %21, i32 0, i32 0
  %23 = load i32, i32* %3, align 4
  %24 = sext i32 %23 to i64
  %25 = getelementptr inbounds [999 x %struct.anon], [999 x %struct.anon]* %2, i64 0, i64 %24
  %26 = getelementptr inbounds %struct.anon, %struct.anon* %25, i32 0, i32 1
  %27 = getelementptr inbounds [26 x i8], [26 x i8]* %26, i64 0, i64 0
  %28 = call i32 (i8*, ...) @__isoc99_scanf(i8* getelementptr inbounds ([6 x i8], [6 x i8]* @.str.1, i64 0, i64 0), i32* %22, i8* %27)
  %29 = load i32, i32* %3, align 4
  %30 = sext i32 %29 to i64
  %31 = getelementptr inbounds [999 x %struct.anon], [999 x %struct.anon]* %2, i64 0, i64 %30
  %32 = getelementptr inbounds %struct.anon, %struct.anon* %31, i32 0, i32 1
  %33 = getelementptr inbounds [26 x i8], [26 x i8]* %32, i64 0, i64 0
  %34 = call i64 @strlen(i8* %33) #4
  %35 = trunc i64 %34 to i32
  store i32 %35, i32* %5, align 4
  store i32 0, i32* %4, align 4
  br label %36

36:                                               ; preds = %73, %18
  %37 = load i32, i32* %4, align 4
  %38 = load i32, i32* %5, align 4
  %39 = icmp slt i32 %37, %38
  br i1 %39, label %40, label %76

40:                                               ; preds = %36
  %41 = load i32, i32* %3, align 4
  %42 = sext i32 %41 to i64
  %43 = getelementptr inbounds [999 x %struct.anon], [999 x %struct.anon]* %2, i64 0, i64 %42
  %44 = getelementptr inbounds %struct.anon, %struct.anon* %43, i32 0, i32 1
  %45 = load i32, i32* %4, align 4
  %46 = sext i32 %45 to i64
  %47 = getelementptr inbounds [26 x i8], [26 x i8]* %44, i64 0, i64 %46
  %48 = load i8, i8* %47, align 1
  %49 = sext i8 %48 to i32
  %50 = sub nsw i32 %49, 65
  store i32 %50, i32* %9, align 4
  %51 = load i32, i32* %9, align 4
  %52 = sext i32 %51 to i64
  %53 = getelementptr inbounds [26 x [1000 x i32]], [26 x [1000 x i32]]* %7, i64 0, i64 %52
  %54 = getelementptr inbounds [1000 x i32], [1000 x i32]* %53, i64 0, i64 0
  %55 = load i32, i32* %54, align 16
  %56 = add nsw i32 %55, 1
  store i32 %56, i32* %54, align 16
  %57 = load i32, i32* %9, align 4
  %58 = sext i32 %57 to i64
  %59 = getelementptr inbounds [26 x [1000 x i32]], [26 x [1000 x i32]]* %7, i64 0, i64 %58
  %60 = getelementptr inbounds [1000 x i32], [1000 x i32]* %59, i64 0, i64 0
  %61 = load i32, i32* %60, align 16
  store i32 %61, i32* %8, align 4
  %62 = load i32, i32* %3, align 4
  %63 = sext i32 %62 to i64
  %64 = getelementptr inbounds [999 x %struct.anon], [999 x %struct.anon]* %2, i64 0, i64 %63
  %65 = getelementptr inbounds %struct.anon, %struct.anon* %64, i32 0, i32 0
  %66 = load i32, i32* %65, align 16
  %67 = load i32, i32* %9, align 4
  %68 = sext i32 %67 to i64
  %69 = getelementptr inbounds [26 x [1000 x i32]], [26 x [1000 x i32]]* %7, i64 0, i64 %68
  %70 = load i32, i32* %8, align 4
  %71 = sext i32 %70 to i64
  %72 = getelementptr inbounds [1000 x i32], [1000 x i32]* %69, i64 0, i64 %71
  store i32 %66, i32* %72, align 4
  br label %73

73:                                               ; preds = %40
  %74 = load i32, i32* %4, align 4
  %75 = add nsw i32 %74, 1
  store i32 %75, i32* %4, align 4
  br label %36

76:                                               ; preds = %36
  br label %77

77:                                               ; preds = %76
  %78 = load i32, i32* %3, align 4
  %79 = add nsw i32 %78, 1
  store i32 %79, i32* %3, align 4
  br label %14

80:                                               ; preds = %14
  %81 = getelementptr inbounds [26 x [1000 x i32]], [26 x [1000 x i32]]* %7, i64 0, i64 0
  %82 = getelementptr inbounds [1000 x i32], [1000 x i32]* %81, i64 0, i64 0
  %83 = load i32, i32* %82, align 16
  store i32 %83, i32* %10, align 4
  store i32 0, i32* %11, align 4
  store i32 1, i32* %3, align 4
  br label %84

84:                                               ; preds = %103, %80
  %85 = load i32, i32* %3, align 4
  %86 = icmp slt i32 %85, 26
  br i1 %86, label %87, label %106

87:                                               ; preds = %84
  %88 = load i32, i32* %3, align 4
  %89 = sext i32 %88 to i64
  %90 = getelementptr inbounds [26 x [1000 x i32]], [26 x [1000 x i32]]* %7, i64 0, i64 %89
  %91 = getelementptr inbounds [1000 x i32], [1000 x i32]* %90, i64 0, i64 0
  %92 = load i32, i32* %91, align 16
  %93 = load i32, i32* %10, align 4
  %94 = icmp sgt i32 %92, %93
  br i1 %94, label %95, label %102

95:                                               ; preds = %87
  %96 = load i32, i32* %3, align 4
  %97 = sext i32 %96 to i64
  %98 = getelementptr inbounds [26 x [1000 x i32]], [26 x [1000 x i32]]* %7, i64 0, i64 %97
  %99 = getelementptr inbounds [1000 x i32], [1000 x i32]* %98, i64 0, i64 0
  %100 = load i32, i32* %99, align 16
  store i32 %100, i32* %10, align 4
  %101 = load i32, i32* %3, align 4
  store i32 %101, i32* %11, align 4
  br label %102

102:                                              ; preds = %95, %87
  br label %103

103:                                              ; preds = %102
  %104 = load i32, i32* %3, align 4
  %105 = add nsw i32 %104, 1
  store i32 %105, i32* %3, align 4
  br label %84

106:                                              ; preds = %84
  %107 = load i32, i32* %11, align 4
  %108 = add nsw i32 %107, 65
  %109 = call i32 (i8*, ...) @printf(i8* getelementptr inbounds ([4 x i8], [4 x i8]* @.str.2, i64 0, i64 0), i32 %108)
  %110 = load i32, i32* %10, align 4
  %111 = call i32 (i8*, ...) @printf(i8* getelementptr inbounds ([4 x i8], [4 x i8]* @.str, i64 0, i64 0), i32 %110)
  store i32 1, i32* %3, align 4
  br label %112

112:                                              ; preds = %125, %106
  %113 = load i32, i32* %3, align 4
  %114 = load i32, i32* %10, align 4
  %115 = icmp sle i32 %113, %114
  br i1 %115, label %116, label %128

116:                                              ; preds = %112
  %117 = load i32, i32* %11, align 4
  %118 = sext i32 %117 to i64
  %119 = getelementptr inbounds [26 x [1000 x i32]], [26 x [1000 x i32]]* %7, i64 0, i64 %118
  %120 = load i32, i32* %3, align 4
  %121 = sext i32 %120 to i64
  %122 = getelementptr inbounds [1000 x i32], [1000 x i32]* %119, i64 0, i64 %121
  %123 = load i32, i32* %122, align 4
  %124 = call i32 (i8*, ...) @printf(i8* getelementptr inbounds ([4 x i8], [4 x i8]* @.str, i64 0, i64 0), i32 %123)
  br label %125

125:                                              ; preds = %116
  %126 = load i32, i32* %3, align 4
  %127 = add nsw i32 %126, 1
  store i32 %127, i32* %3, align 4
  br label %112

128:                                              ; preds = %112
  ret i32 0
}

; Function Attrs: argmemonly nounwind willreturn
declare void @llvm.memset.p0i8.i64(i8* nocapture writeonly, i8, i64, i1 immarg) #1

declare dso_local i32 @__isoc99_scanf(i8*, ...) #2

; Function Attrs: nounwind readonly
declare dso_local i64 @strlen(i8*) #3

declare dso_local i32 @printf(i8*, ...) #2


!llvm.module.flags = !{!0}
!llvm.ident = !{!1}

!0 = !{i32 1, !"wchar_size", i32 4}
!1 = !{!"clang version 10.0.0-4ubuntu1 "}
